; Function Attrs: nounwind uwtable
define void @Wlc_NtkDupOneBuffer(ptr noundef %0, ptr readnone captures(none) %1, ptr noundef readonly captures(none) %2, i32 noundef %3, ptr noundef initializes((4, 8)) %4, i32 noundef %5) local_unnamed_addr #0 {
  %7 = load i16, ptr %2, align 8
  %8 = lshr i16 %7, 6
  %9 = and i16 %8, 1
  %10 = zext nneg i16 %9 to i32
  %11 = getelementptr inbounds nuw i8, ptr %2, i64 8
  %12 = load i32, ptr %11, align 8, !tbaa !27
  %13 = getelementptr inbounds nuw i8, ptr %2, i64 12
  %14 = load i32, ptr %13, align 4, !tbaa !28
  %15 = tail call i32 @Wlc_ObjAlloc(ptr noundef %0, i32 noundef 7, i32 noundef %10, i32 noundef %12, i32 noundef %14) #26
  %16 = getelementptr i8, ptr %0, i64 640
  %.val = load ptr, ptr %16, align 8, !tbaa !11
  %17 = load i32, ptr %4, align 8, !tbaa !25
  %.not.i.i = icmp slt i32 %17, 1
  %18 = getelementptr inbounds nuw i8, ptr %4, i64 8
  %19 = load ptr, ptr %18, align 8, !tbaa !3
  br i1 %.not.i.i, label %20, label %Vec_IntGrow.exit.i

20:                                               ; preds = %6
  %.not9.i.i = icmp eq ptr %19, null
  br i1 %.not9.i.i, label %23, label %21

21:                                               ; preds = %20
  %22 = tail call dereferenceable_or_null(4) ptr @realloc(ptr noundef nonnull %19, i64 noundef 4) #27
  br label %25

23:                                               ; preds = %20
  %24 = tail call noalias dereferenceable_or_null(4) ptr @malloc(i64 noundef 4) #25
  br label %25

25:                                               ; preds = %23, %21
  %26 = phi ptr [ %22, %21 ], [ %24, %23 ]
  store ptr %26, ptr %18, align 8, !tbaa !3
  store i32 1, ptr %4, align 8, !tbaa !25
  br label %Vec_IntGrow.exit.i

Vec_IntGrow.exit.i:                               ; preds = %6, %25
  %27 = phi ptr [ %26, %25 ], [ %19, %6 ]
  store i32 %3, ptr %27, align 4, !tbaa !10
  %28 = sext i32 %15 to i64
  %29 = getelementptr inbounds %struct.Wlc_Obj_t_, ptr %.val, i64 %28
  %30 = getelementptr inbounds nuw i8, ptr %4, i64 4
  store i32 1, ptr %30, align 4, !tbaa !26
  tail call void @Wlc_ObjAddFanins(ptr noundef nonnull %0, ptr noundef %29, ptr noundef nonnull %4) #26
  tail call void @Wlc_ObjSetCo(ptr noundef nonnull %0, ptr noundef %29, i32 noundef %5) #26
  ret void
}